target datalayout = "e-m:e-p270:32:32-p271:32:32-p272:64:64-i64:64-i128:128-f80:128-n8:16:32:64-S128"
target triple = "x86_64-pc-linux-gnu"

%"class.absl::ByLength" = type { i64 }

@.str.1 = private unnamed_addr constant [125 x i8] c"generated/home/dtcxzyw/WorkSpace/Projects/compilers/llvm-opt-benchmark/bench/abseil-cpp/abseil-cpp/absl/strings/str_split.cc\00", align 1
@.str.2 = private unnamed_addr constant [20 x i8] c"Check %s failed: %s\00", align 1
@.str.3 = private unnamed_addr constant [11 x i8] c"length > 0\00", align 1
@.str.4 = private unnamed_addr constant [1 x i8] zeroinitializer, align 1

; Function Attrs: mustprogress uwtable
define dso_local void @_ZN4absl8ByLengthC2El(ptr noundef nonnull align 8 dereferenceable(8) %0, i64 noundef %1) unnamed_addr #0 align 2 {
  %3 = alloca ptr, align 8
  %4 = alloca i64, align 8
  %5 = alloca ptr, align 8
  store ptr %0, ptr %3, align 8, !tbaa !35
  store i64 %1, ptr %4, align 8, !tbaa !16
  %6 = load ptr, ptr %3, align 8
  %7 = getelementptr inbounds nuw %"class.absl::ByLength", ptr %6, i32 0, i32 0
  %8 = load i64, ptr %4, align 8, !tbaa !16
  store i64 %8, ptr %7, align 8, !tbaa !37
  br label %9

9:                                                ; preds = %2
  %10 = load i64, ptr %4, align 8, !tbaa !16
  %11 = icmp sgt i64 %10, 0
  %12 = xor i1 %11, true
  %13 = zext i1 %12 to i64
  %14 = call i64 @llvm.expect.i64(i64 %13, i64 0)
  %15 = icmp ne i64 %14, 0
  br i1 %15, label %16, label %22

16:                                               ; preds = %9
  br label %17

17:                                               ; preds = %16
  call void @llvm.lifetime.start.p0(i64 8, ptr %5) #13
  store ptr getelementptr (i8, ptr @.str.1, i64 112), ptr %5, align 8, !tbaa !18
  call void (i32, ptr, i32, ptr, ...) @_ZN4absl16raw_log_internal6RawLogENS_11LogSeverityEPKciS3_z(i32 noundef 3, ptr noundef getelementptr (i8, ptr @.str.1, i64 112), i32 noundef 129, ptr noundef @.str.2, ptr noundef @.str.3, ptr noundef @.str.4)
  br label %18

18:                                               ; preds = %17
  unreachable

19:                                               ; No predecessors!
  br label %20

20:                                               ; preds = %19
  call void @llvm.lifetime.end.p0(i64 8, ptr %5) #13
  br label %21

21:                                               ; preds = %20
  br label %22

22:                                               ; preds = %21, %9
  br label %23

23:                                               ; preds = %22
  ret void
}