; Function Attrs: mustprogress uwtable
define dso_local void @_ZN4absl8ByLengthC2El(ptr noundef nonnull writeonly align 8 captures(none) dereferenceable(8) initializes((0, 8)) %0, i64 noundef %1) unnamed_addr #0 align 2 {
  store i64 %1, ptr %0, align 8, !tbaa !21
  %3 = icmp slt i64 %1, 1
  br i1 %3, label %4, label %5, !prof !23

4:                                                ; preds = %2
  tail call void (i32, ptr, i32, ptr, ...) @_ZN4absl16raw_log_internal6RawLogENS_11LogSeverityEPKciS3_z(i32 noundef 3, ptr noundef nonnull getelementptr inbounds nuw (i8, ptr @.str.1, i64 112), i32 noundef 129, ptr noundef nonnull @.str.2, ptr noundef nonnull @.str.3, ptr noundef nonnull @.str.4)
  unreachable

5:                                                ; preds = %2
  ret void
}